; Function Attrs: mustprogress uwtable
define noundef i64 @_ZN32pxrInternal_v0_24__pxrReserved__10hash_valueERKNS_23_TestURIResolverContextE(ptr noundef nonnull align 8 dereferenceable(32) %0) local_unnamed_addr #0 {
  %2 = alloca %"class.pxrInternal_v0_24__pxrReserved__::Tf_HashState", align 8
  call void @llvm.lifetime.start.p0(i64 16, ptr nonnull %2)
  store i64 0, ptr %2, align 8
  %3 = getelementptr inbounds nuw i8, ptr %2, i64 8
  store i8 0, ptr %3, align 8
  %4 = tail call noundef ptr @_ZNKSt7__cxx1112basic_stringIcSt11char_traitsIcESaIcEE5c_strEv(ptr noundef nonnull align 8 dereferenceable(32) %0) #17
  %5 = tail call noundef i64 @_ZNKSt7__cxx1112basic_stringIcSt11char_traitsIcESaIcEE6lengthEv(ptr noundef nonnull align 8 dereferenceable(32) %0) #17
  call void @_ZN32pxrInternal_v0_24__pxrReserved__12Tf_HashState12_AppendBytesEPKcm(ptr noundef nonnull align 8 dereferenceable(9) %2, ptr noundef %4, i64 noundef %5)
  %6 = load i64, ptr %2, align 8
  %7 = mul i64 %6, -7046029254386353067
  %8 = call noundef i64 @llvm.bswap.i64(i64 %7)
  call void @llvm.lifetime.end.p0(i64 16, ptr nonnull %2)
  ret i64 %8
}